ccopy_reg
_reconstructor
p0
(ctweepy.models
ResultSet
p1
c__builtin__
list
p2
(lp3
g0
(ctweepy.models
Status
p4
c__builtin__
object
p5
Ntp6
Rp7
(dp8
S'favorited'
p9
I00
sS'contributors'
p10
NsS'truncated'
p11
I00
sS'text'
p12
VI love python!
p13
sS'source_url'
p14
Vhttp://twitter.com
p15
sS'is_quote_status'
p16
I00
sS'in_reply_to_status_id'
p17
NsS'user'
p18
g0
(ctweepy.models
User
p19
g5
Ntp20
Rp21
(dp22
S'follow_request_sent'
p23
I00
sS'has_extended_profile'
p24
I00
sS'profile_use_background_image'
p25
I01
sS'profile_sidebar_fill_color'
p26
VDDEEF6
p27
sS'id'
p28
I1057382695
sS'verified'
p29
I00
sS'translator_type'
p30
Vnone
p31
sS'entities'
p32
(dp33
Vdescription
p34
(dp35
Vurls
p36
(lp37
sssS'profile_image_url_https'
p38
Vhttps://pbs.twimg.com/profile_images/709445009049653250/JcD6t1sX_normal.jpg
p39
sS'_json'
p40
(dp41
Vfollow_request_sent
p42
I00
sVhas_extended_profile
p43
I00
sVprofile_use_background_image
p44
I01
sVdefault_profile_image
p45
I00
sVid
p46
I1057382695
sVprofile_background_image_url_https
p47
Vhttps://abs.twimg.com/images/themes/theme1/bg.png
p48
sVverified
p49
I00
sVtranslator_type
p50
g31
sVprofile_text_color
p51
V333333
p52
sVprofile_image_url_https
p53
g39
sVprofile_sidebar_fill_color
p54
g27
sVentities
p55
g33
sVfollowers_count
p56
I52
sVprofile_sidebar_border_color
p57
VC0DEED
p58
sVid_str
p59
V1057382695
p60
sVprofile_background_color
p61
VC0DEED
p62
sVlisted_count
p63
I0
sVis_translation_enabled
p64
I00
sVutc_offset
p65
I-14400
sVstatuses_count
p66
I82
sVdescription
p67
V
p68
sVfriends_count
p69
I310
sVlocation
p70
g68
sVprofile_link_color
p71
V1DA1F2
p72
sVprofile_image_url
p73
Vhttp://pbs.twimg.com/profile_images/709445009049653250/JcD6t1sX_normal.jpg
p74
sVfollowing
p75
I00
sVgeo_enabled
p76
I00
sVprofile_banner_url
p77
Vhttps://pbs.twimg.com/profile_banners/1057382695/1457979831
p78
sVprofile_background_image_url
p79
Vhttp://abs.twimg.com/images/themes/theme1/bg.png
p80
sVscreen_name
p81
VHannahSchafer18
p82
sVlang
p83
Ven
p84
sVprofile_background_tile
p85
I00
sVfavourites_count
p86
I70
sVname
p87
VHannah Schafer
p88
sVnotifications
p89
I00
sVurl
p90
NsVcreated_at
p91
VThu Jan 03 09:57:09 +0000 2013
p92
sVcontributors_enabled
p93
I00
sVtime_zone
p94
VEastern Time (US & Canada)
p95
sVprotected
p96
I01
sVdefault_profile
p97
I01
sVis_translator
p98
I00
ssS'contributors_enabled'
p99
I00
sS'profile_text_color'
p100
g52
sS'followers_count'
p101
I52
sS'profile_sidebar_border_color'
p102
g58
sS'id_str'
p103
g60
sS'default_profile_image'
p104
I00
sS'listed_count'
p105
I0
sS'is_translation_enabled'
p106
I00
sS'utc_offset'
p107
I-14400
sS'statuses_count'
p108
I82
sS'description'
p109
g68
sS'friends_count'
p110
I310
sS'location'
p111
g68
sS'profile_link_color'
p112
g72
sS'profile_image_url'
p113
g74
sS'notifications'
p114
I00
sS'geo_enabled'
p115
I00
sS'profile_background_color'
p116
g62
sS'profile_banner_url'
p117
g78
sS'profile_background_image_url'
p118
g80
sS'screen_name'
p119
g82
sS'lang'
p120
g84
sS'following'
p121
I00
sS'profile_background_tile'
p122
I00
sS'favourites_count'
p123
I70
sS'name'
p124
g88
sS'url'
p125
NsS'created_at'
p126
cdatetime
datetime
p127
(S'\x07\xdd\x01\x03\t9\t\x00\x00\x00'
p128
tp129
Rp130
sS'profile_background_image_url_https'
p131
g48
sS'time_zone'
p132
g95
sS'protected'
p133
I01
sS'default_profile'
p134
I01
sS'is_translator'
p135
I00
sbsS'geo'
p136
Nsg28
I853738687871336448
sS'favorite_count'
p137
I0
sS'source'
p138
VTwitter Web Client
p139
sg120
Ven
p140
sS'author'
p141
g21
sg126
g127
(S"\x07\xe1\x04\x10\x16#'\x00\x00\x00"
p142
tp143
Rp144
sg40
(dp145
Vcontributors
p146
NsVtruncated
p147
I00
sVtext
p148
g13
sVis_quote_status
p149
I00
sVin_reply_to_status_id
p150
NsVid
p151
I853738687871336448
sVfavorite_count
p152
I0
sVsource
p153
V<a href="http://twitter.com" rel="nofollow">Twitter Web Client</a>
p154
sVretweeted
p155
I00
sVcoordinates
p156
NsVentities
p157
(dp158
Vsymbols
p159
(lp160
sVuser_mentions
p161
(lp162
sVhashtags
p163
(lp164
sVurls
p165
(lp166
ssVin_reply_to_screen_name
p167
NsVin_reply_to_user_id
p168
NsVretweet_count
p169
I0
sVid_str
p170
V853738687871336448
p171
sVfavorited
p172
I00
sVuser
p173
g41
sVgeo
p174
NsVin_reply_to_user_id_str
p175
NsVlang
p176
g140
sVcreated_at
p177
VSun Apr 16 22:35:39 +0000 2017
p178
sVin_reply_to_status_id_str
p179
NsVplace
p180
NssS'coordinates'
p181
NsS'in_reply_to_user_id_str'
p182
Nsg32
g158
sS'in_reply_to_status_id_str'
p183
NsS'in_reply_to_screen_name'
p184
Nsg103
g171
sS'retweeted'
p185
I00
sS'place'
p186
NsS'retweet_count'
p187
I0
sS'in_reply_to_user_id'
p188
Nsbag0
(g4
g5
Ntp189
Rp190
(dp191
g9
I00
sg10
Nsg11
I00
sg12
VFeeling sad now. I hate what's happening to this country.
p192
sg14
Vhttp://twitter.com
p193
sg16
I00
sg17
Nsg18
g0
(g19
g5
Ntp194
Rp195
(dp196
g23
I00
sg24
I00
sg25
I01
sg26
VDDEEF6
p197
sg28
I1057382695
sg29
I00
sg30
Vnone
p198
sg32
(dp199
Vdescription
p200
(dp201
Vurls
p202
(lp203
sssg38
Vhttps://pbs.twimg.com/profile_images/709445009049653250/JcD6t1sX_normal.jpg
p204
sg40
(dp205
Vfollow_request_sent
p206
I00
sVhas_extended_profile
p207
I00
sVprofile_use_background_image
p208
I01
sVdefault_profile_image
p209
I00
sVid
p210
I1057382695
sVprofile_background_image_url_https
p211
Vhttps://abs.twimg.com/images/themes/theme1/bg.png
p212
sVverified
p213
I00
sVtranslator_type
p214
g198
sVprofile_text_color
p215
V333333
p216
sVprofile_image_url_https
p217
g204
sVprofile_sidebar_fill_color
p218
g197
sVentities
p219
g199
sVfollowers_count
p220
I52
sVprofile_sidebar_border_color
p221
VC0DEED
p222
sVid_str
p223
V1057382695
p224
sVprofile_background_color
p225
VC0DEED
p226
sVlisted_count
p227
I0
sVis_translation_enabled
p228
I00
sVutc_offset
p229
I-14400
sVstatuses_count
p230
I82
sVdescription
p231
g68
sVfriends_count
p232
I310
sVlocation
p233
g68
sVprofile_link_color
p234
V1DA1F2
p235
sVprofile_image_url
p236
Vhttp://pbs.twimg.com/profile_images/709445009049653250/JcD6t1sX_normal.jpg
p237
sVfollowing
p238
I00
sVgeo_enabled
p239
I00
sVprofile_banner_url
p240
Vhttps://pbs.twimg.com/profile_banners/1057382695/1457979831
p241
sVprofile_background_image_url
p242
Vhttp://abs.twimg.com/images/themes/theme1/bg.png
p243
sVscreen_name
p244
VHannahSchafer18
p245
sVlang
p246
Ven
p247
sVprofile_background_tile
p248
I00
sVfavourites_count
p249
I70
sVname
p250
VHannah Schafer
p251
sVnotifications
p252
I00
sVurl
p253
NsVcreated_at
p254
VThu Jan 03 09:57:09 +0000 2013
p255
sVcontributors_enabled
p256
I00
sVtime_zone
p257
VEastern Time (US & Canada)
p258
sVprotected
p259
I01
sVdefault_profile
p260
I01
sVis_translator
p261
I00
ssg99
I00
sg100
g216
sg101
I52
sg102
g222
sg103
g224
sg104
I00
sg105
I0
sg106
I00
sg107
I-14400
sg108
I82
sg109
g68
sg110
I310
sg111
g68
sg112
g235
sg113
g237
sg114
I00
sg115
I00
sg116
g226
sg117
g241
sg118
g243
sg119
g245
sg120
g247
sg121
I00
sg122
I00
sg123
I70
sg124
g251
sg125
Nsg126
g127
(S'\x07\xdd\x01\x03\t9\t\x00\x00\x00'
p262
tp263
Rp264
sg131
g212
sg132
g258
sg133
I01
sg134
I01
sg135
I00
sbsg136
Nsg28
I853738524062883840
sg137
I0
sg138
VTwitter Web Client
p265
sg120
Ven
p266
sg141
g195
sg126
g127
(S'\x07\xe1\x04\x10\x16#\x00\x00\x00\x00'
p267
tp268
Rp269
sg40
(dp270
Vcontributors
p271
NsVtruncated
p272
I00
sVtext
p273
g192
sVis_quote_status
p274
I00
sVin_reply_to_status_id
p275
NsVid
p276
I853738524062883840
sVfavorite_count
p277
I0
sVsource
p278
V<a href="http://twitter.com" rel="nofollow">Twitter Web Client</a>
p279
sVretweeted
p280
I00
sVcoordinates
p281
NsVentities
p282
(dp283
Vsymbols
p284
(lp285
sVuser_mentions
p286
(lp287
sVhashtags
p288
(lp289
sVurls
p290
(lp291
ssVin_reply_to_screen_name
p292
NsVin_reply_to_user_id
p293
NsVretweet_count
p294
I0
sVid_str
p295
V853738524062883840
p296
sVfavorited
p297
I00
sVuser
p298
g205
sVgeo
p299
NsVin_reply_to_user_id_str
p300
NsVlang
p301
g266
sVcreated_at
p302
VSun Apr 16 22:35:00 +0000 2017
p303
sVin_reply_to_status_id_str
p304
NsVplace
p305
Nssg181
Nsg182
Nsg32
g283
sg183
Nsg184
Nsg103
g296
sg185
I00
sg186
Nsg187
I0
sg188
Nsbag0
(g4
g5
Ntp306
Rp307
(dp308
g9
I00
sg10
Nsg11
I00
sg12
VSo excited for the next episode of my new favorite show: Black-ish!!!
p309
sg14
Vhttp://twitter.com
p310
sg16
I00
sg17
Nsg18
g0
(g19
g5
Ntp311
Rp312
(dp313
g23
I00
sg24
I00
sg25
I01
sg26
VDDEEF6
p314
sg28
I1057382695
sg29
I00
sg30
Vnone
p315
sg32
(dp316
Vdescription
p317
(dp318
Vurls
p319
(lp320
sssg38
Vhttps://pbs.twimg.com/profile_images/709445009049653250/JcD6t1sX_normal.jpg
p321
sg40
(dp322
Vfollow_request_sent
p323
I00
sVhas_extended_profile
p324
I00
sVprofile_use_background_image
p325
I01
sVdefault_profile_image
p326
I00
sVid
p327
I1057382695
sVprofile_background_image_url_https
p328
Vhttps://abs.twimg.com/images/themes/theme1/bg.png
p329
sVverified
p330
I00
sVtranslator_type
p331
g315
sVprofile_text_color
p332
V333333
p333
sVprofile_image_url_https
p334
g321
sVprofile_sidebar_fill_color
p335
g314
sVentities
p336
g316
sVfollowers_count
p337
I52
sVprofile_sidebar_border_color
p338
VC0DEED
p339
sVid_str
p340
V1057382695
p341
sVprofile_background_color
p342
VC0DEED
p343
sVlisted_count
p344
I0
sVis_translation_enabled
p345
I00
sVutc_offset
p346
I-14400
sVstatuses_count
p347
I82
sVdescription
p348
g68
sVfriends_count
p349
I310
sVlocation
p350
g68
sVprofile_link_color
p351
V1DA1F2
p352
sVprofile_image_url
p353
Vhttp://pbs.twimg.com/profile_images/709445009049653250/JcD6t1sX_normal.jpg
p354
sVfollowing
p355
I00
sVgeo_enabled
p356
I00
sVprofile_banner_url
p357
Vhttps://pbs.twimg.com/profile_banners/1057382695/1457979831
p358
sVprofile_background_image_url
p359
Vhttp://abs.twimg.com/images/themes/theme1/bg.png
p360
sVscreen_name
p361
VHannahSchafer18
p362
sVlang
p363
Ven
p364
sVprofile_background_tile
p365
I00
sVfavourites_count
p366
I70
sVname
p367
VHannah Schafer
p368
sVnotifications
p369
I00
sVurl
p370
NsVcreated_at
p371
VThu Jan 03 09:57:09 +0000 2013
p372
sVcontributors_enabled
p373
I00
sVtime_zone
p374
VEastern Time (US & Canada)
p375
sVprotected
p376
I01
sVdefault_profile
p377
I01
sVis_translator
p378
I00
ssg99
I00
sg100
g333
sg101
I52
sg102
g339
sg103
g341
sg104
I00
sg105
I0
sg106
I00
sg107
I-14400
sg108
I82
sg109
g68
sg110
I310
sg111
g68
sg112
g352
sg113
g354
sg114
I00
sg115
I00
sg116
g343
sg117
g358
sg118
g360
sg119
g362
sg120
g364
sg121
I00
sg122
I00
sg123
I70
sg124
g368
sg125
Nsg126
g127
(S'\x07\xdd\x01\x03\t9\t\x00\x00\x00'
p379
tp380
Rp381
sg131
g329
sg132
g375
sg133
I01
sg134
I01
sg135
I00
sbsg136
Nsg28
I853734646663725058
sg137
I0
sg138
VTwitter Web Client
p382
sg120
Ven
p383
sg141
g312
sg126
g127
(S'\x07\xe1\x04\x10\x16\x13$\x00\x00\x00'
p384
tp385
Rp386
sg40
(dp387
Vcontributors
p388
NsVtruncated
p389
I00
sVtext
p390
g309
sVis_quote_status
p391
I00
sVin_reply_to_status_id
p392
NsVid
p393
I853734646663725058
sVfavorite_count
p394
I0
sVsource
p395
V<a href="http://twitter.com" rel="nofollow">Twitter Web Client</a>
p396
sVretweeted
p397
I00
sVcoordinates
p398
NsVentities
p399
(dp400
Vsymbols
p401
(lp402
sVuser_mentions
p403
(lp404
sVhashtags
p405
(lp406
sVurls
p407
(lp408
ssVin_reply_to_screen_name
p409
NsVin_reply_to_user_id
p410
NsVretweet_count
p411
I0
sVid_str
p412
V853734646663725058
p413
sVfavorited
p414
I00
sVuser
p415
g322
sVgeo
p416
NsVin_reply_to_user_id_str
p417
NsVlang
p418
g383
sVcreated_at
p419
VSun Apr 16 22:19:36 +0000 2017
p420
sVin_reply_to_status_id_str
p421
NsVplace
p422
Nssg181
Nsg182
Nsg32
g400
sg183
Nsg184
Nsg103
g413
sg185
I00
sg186
Nsg187
I0
sg188
Nsbag0
(g4
g5
Ntp423
Rp424
(dp425
g9
I01
sg10
Nsg11
I00
sg12
VI love python-twitter!
p426
sg14
Vhttps://apps.twitter.com/app/new
p427
sg16
I00
sg17
Nsg18
g0
(g19
g5
Ntp428
Rp429
(dp430
g23
I00
sg24
I00
sg25
I01
sg26
VDDEEF6
p431
sg28
I1057382695
sg29
I00
sg30
Vnone
p432
sg32
(dp433
Vdescription
p434
(dp435
Vurls
p436
(lp437
sssg38
Vhttps://pbs.twimg.com/profile_images/709445009049653250/JcD6t1sX_normal.jpg
p438
sg40
(dp439
Vfollow_request_sent
p440
I00
sVhas_extended_profile
p441
I00
sVprofile_use_background_image
p442
I01
sVdefault_profile_image
p443
I00
sVid
p444
I1057382695
sVprofile_background_image_url_https
p445
Vhttps://abs.twimg.com/images/themes/theme1/bg.png
p446
sVverified
p447
I00
sVtranslator_type
p448
g432
sVprofile_text_color
p449
V333333
p450
sVprofile_image_url_https
p451
g438
sVprofile_sidebar_fill_color
p452
g431
sVentities
p453
g433
sVfollowers_count
p454
I52
sVprofile_sidebar_border_color
p455
VC0DEED
p456
sVid_str
p457
V1057382695
p458
sVprofile_background_color
p459
VC0DEED
p460
sVlisted_count
p461
I0
sVis_translation_enabled
p462
I00
sVutc_offset
p463
I-14400
sVstatuses_count
p464
I82
sVdescription
p465
g68
sVfriends_count
p466
I310
sVlocation
p467
g68
sVprofile_link_color
p468
V1DA1F2
p469
sVprofile_image_url
p470
Vhttp://pbs.twimg.com/profile_images/709445009049653250/JcD6t1sX_normal.jpg
p471
sVfollowing
p472
I00
sVgeo_enabled
p473
I00
sVprofile_banner_url
p474
Vhttps://pbs.twimg.com/profile_banners/1057382695/1457979831
p475
sVprofile_background_image_url
p476
Vhttp://abs.twimg.com/images/themes/theme1/bg.png
p477
sVscreen_name
p478
VHannahSchafer18
p479
sVlang
p480
Ven
p481
sVprofile_background_tile
p482
I00
sVfavourites_count
p483
I70
sVname
p484
VHannah Schafer
p485
sVnotifications
p486
I00
sVurl
p487
NsVcreated_at
p488
VThu Jan 03 09:57:09 +0000 2013
p489
sVcontributors_enabled
p490
I00
sVtime_zone
p491
VEastern Time (US & Canada)
p492
sVprotected
p493
I01
sVdefault_profile
p494
I01
sVis_translator
p495
I00
ssg99
I00
sg100
g450
sg101
I52
sg102
g456
sg103
g458
sg104
I00
sg105
I0
sg106
I00
sg107
I-14400
sg108
I82
sg109
g68
sg110
I310
sg111
g68
sg112
g469
sg113
g471
sg114
I00
sg115
I00
sg116
g460
sg117
g475
sg118
g477
sg119
g479
sg120
g481
sg121
I00
sg122
I00
sg123
I70
sg124
g485
sg125
Nsg126
g127
(S'\x07\xdd\x01\x03\t9\t\x00\x00\x00'
p496
tp497
Rp498
sg131
g446
sg132
g492
sg133
I01
sg134
I01
sg135
I00
sbsg136
Nsg28
I844385549360103424
sg137
I1
sg138
VTwitter OAuth Test Application
p499
sg120
Ven
p500
sg141
g429
sg126
g127
(S'\x07\xe1\x03\x16\x03\t%\x00\x00\x00'
p501
tp502
Rp503
sg40
(dp504
Vcontributors
p505
NsVtruncated
p506
I00
sVtext
p507
g426
sVis_quote_status
p508
I00
sVin_reply_to_status_id
p509
NsVid
p510
I844385549360103424
sVfavorite_count
p511
I1
sVsource
p512
V<a href="https://apps.twitter.com/app/new" rel="nofollow">Twitter OAuth Test Application</a>
p513
sVretweeted
p514
I00
sVcoordinates
p515
NsVentities
p516
(dp517
Vsymbols
p518
(lp519
sVuser_mentions
p520
(lp521
sVhashtags
p522
(lp523
sVurls
p524
(lp525
ssVin_reply_to_screen_name
p526
NsVin_reply_to_user_id
p527
NsVretweet_count
p528
I0
sVid_str
p529
V844385549360103424
p530
sVfavorited
p531
I01
sVuser
p532
g439
sVgeo
p533
NsVin_reply_to_user_id_str
p534
NsVlang
p535
g500
sVcreated_at
p536
VWed Mar 22 03:09:37 +0000 2017
p537
sVin_reply_to_status_id_str
p538
NsVplace
p539
Nssg181
Nsg182
Nsg32
g517
sg183
Nsg184
Nsg103
g530
sg185
I00
sg186
Nsg187
I0
sg188
Nsbag0
(g4
g5
Ntp540
Rp541
(dp542
g9
I00
sg10
Nsg11
I00
sg12
V@jackantonoff @ACLU Thanks for matching Jack! https://t.co/6T9S7v1tIr
p543
sg14
Vhttp://twitter.com
p544
sS'possibly_sensitive'
p545
I00
sg16
I00
sg17
I825527049909571584
sg18
g0
(g19
g5
Ntp546
Rp547
(dp548
g23
I00
sg24
I00
sg25
I01
sg26
VDDEEF6
p549
sg28
I1057382695
sg29
I00
sg30
Vnone
p550
sg32
(dp551
Vdescription
p552
(dp553
Vurls
p554
(lp555
sssg38
Vhttps://pbs.twimg.com/profile_images/709445009049653250/JcD6t1sX_normal.jpg
p556
sg40
(dp557
Vfollow_request_sent
p558
I00
sVhas_extended_profile
p559
I00
sVprofile_use_background_image
p560
I01
sVdefault_profile_image
p561
I00
sVid
p562
I1057382695
sVprofile_background_image_url_https
p563
Vhttps://abs.twimg.com/images/themes/theme1/bg.png
p564
sVverified
p565
I00
sVtranslator_type
p566
g550
sVprofile_text_color
p567
V333333
p568
sVprofile_image_url_https
p569
g556
sVprofile_sidebar_fill_color
p570
g549
sVentities
p571
g551
sVfollowers_count
p572
I52
sVprofile_sidebar_border_color
p573
VC0DEED
p574
sVid_str
p575
V1057382695
p576
sVprofile_background_color
p577
VC0DEED
p578
sVlisted_count
p579
I0
sVis_translation_enabled
p580
I00
sVutc_offset
p581
I-14400
sVstatuses_count
p582
I82
sVdescription
p583
g68
sVfriends_count
p584
I310
sVlocation
p585
g68
sVprofile_link_color
p586
V1DA1F2
p587
sVprofile_image_url
p588
Vhttp://pbs.twimg.com/profile_images/709445009049653250/JcD6t1sX_normal.jpg
p589
sVfollowing
p590
I00
sVgeo_enabled
p591
I00
sVprofile_banner_url
p592
Vhttps://pbs.twimg.com/profile_banners/1057382695/1457979831
p593
sVprofile_background_image_url
p594
Vhttp://abs.twimg.com/images/themes/theme1/bg.png
p595
sVscreen_name
p596
VHannahSchafer18
p597
sVlang
p598
Ven
p599
sVprofile_background_tile
p600
I00
sVfavourites_count
p601
I70
sVname
p602
VHannah Schafer
p603
sVnotifications
p604
I00
sVurl
p605
NsVcreated_at
p606
VThu Jan 03 09:57:09 +0000 2013
p607
sVcontributors_enabled
p608
I00
sVtime_zone
p609
VEastern Time (US & Canada)
p610
sVprotected
p611
I01
sVdefault_profile
p612
I01
sVis_translator
p613
I00
ssg99
I00
sg100
g568
sg101
I52
sg102
g574
sg103
g576
sg104
I00
sg105
I0
sg106
I00
sg107
I-14400
sg108
I82
sg109
g68
sg110
I310
sg111
g68
sg112
g587
sg113
g589
sg114
I00
sg115
I00
sg116
g578
sg117
g593
sg118
g595
sg119
g597
sg120
g599
sg121
I00
sg122
I00
sg123
I70
sg124
g603
sg125
Nsg126
g127
(S'\x07\xdd\x01\x03\t9\t\x00\x00\x00'
p614
tp615
Rp616
sg131
g564
sg132
g610
sg133
I01
sg134
I01
sg135
I00
sbsg136
Nsg28
I826127000381251586
sg137
I0
sg138
VTwitter Web Client
p617
sg120
Ven
p618
sg141
g547
sg126
g127
(S'\x07\xe1\x01\x1e\x118(\x00\x00\x00'
p619
tp620
Rp621
sg40
(dp622
Vcontributors
p623
NsVtruncated
p624
I00
sVtext
p625
g543
sVis_quote_status
p626
I00
sVin_reply_to_status_id
p627
I825527049909571584
sVid
p628
I826127000381251586
sVfavorite_count
p629
I0
sVsource
p630
V<a href="http://twitter.com" rel="nofollow">Twitter Web Client</a>
p631
sVretweeted
p632
I00
sVcoordinates
p633
NsVentities
p634
(dp635
Vsymbols
p636
(lp637
sVuser_mentions
p638
(lp639
(dp640
Vid
p641
I414569910
sVindices
p642
(lp643
I0
aI13
asVid_str
p644
V414569910
p645
sVscreen_name
p646
Vjackantonoff
p647
sVname
p648
Vjackantonoff
p649
sa(dp650
Vid
p651
I13393052
sVindices
p652
(lp653
I14
aI19
asVid_str
p654
V13393052
p655
sVscreen_name
p656
VACLU
p657
sVname
p658
VACLU National
p659
sasVhashtags
p660
(lp661
sVurls
p662
(lp663
sVmedia
p664
(lp665
(dp666
Vexpanded_url
p667
Vhttps://twitter.com/HannahSchafer18/status/826127000381251586/photo/1
p668
sVdisplay_url
p669
Vpic.twitter.com/6T9S7v1tIr
p670
sVurl
p671
Vhttps://t.co/6T9S7v1tIr
p672
sVmedia_url_https
p673
Vhttps://pbs.twimg.com/media/C3b-Hr8VcAEa_9h.jpg
p674
sVid_str
p675
V826126989677391873
p676
sVsizes
p677
(dp678
Vsmall
p679
(dp680
Vh
p681
I273
sVresize
p682
Vfit
p683
sVw
p684
I680
ssVlarge
p685
(dp686
g681
I291
sVresize
p687
Vfit
p688
sg684
I725
ssVmedium
p689
(dp690
g681
I291
sVresize
p691
Vfit
p692
sg684
I725
ssVthumb
p693
(dp694
g681
I150
sVresize
p695
Vcrop
p696
sg684
I150
sssVindices
p697
(lp698
I46
aI69
asVtype
p699
Vphoto
p700
sVid
p701
I826126989677391873
sVmedia_url
p702
Vhttp://pbs.twimg.com/media/C3b-Hr8VcAEa_9h.jpg
p703
sassVin_reply_to_screen_name
p704
Vjackantonoff
p705
sVin_reply_to_user_id
p706
I414569910
sVretweet_count
p707
I0
sVid_str
p708
V826127000381251586
p709
sVfavorited
p710
I00
sVuser
p711
g557
sVgeo
p712
NsVin_reply_to_user_id_str
p713
V414569910
p714
sVpossibly_sensitive
p715
I00
sVlang
p716
g618
sVcreated_at
p717
VMon Jan 30 17:56:40 +0000 2017
p718
sVin_reply_to_status_id_str
p719
V825527049909571584
p720
sVplace
p721
NsVextended_entities
p722
(dp723
Vmedia
p724
(lp725
(dp726
Vexpanded_url
p727
Vhttps://twitter.com/HannahSchafer18/status/826127000381251586/photo/1
p728
sVdisplay_url
p729
Vpic.twitter.com/6T9S7v1tIr
p730
sVurl
p731
Vhttps://t.co/6T9S7v1tIr
p732
sVmedia_url_https
p733
Vhttps://pbs.twimg.com/media/C3b-Hr8VcAEa_9h.jpg
p734
sVid_str
p735
V826126989677391873
p736
sVsizes
p737
(dp738
Vsmall
p739
(dp740
g681
I273
sVresize
p741
Vfit
p742
sg684
I680
ssVlarge
p743
(dp744
g681
I291
sVresize
p745
Vfit
p746
sg684
I725
ssVmedium
p747
(dp748
g681
I291
sVresize
p749
Vfit
p750
sg684
I725
ssVthumb
p751
(dp752
g681
I150
sVresize
p753
Vcrop
p754
sg684
I150
sssVindices
p755
(lp756
I46
aI69
asVtype
p757
Vphoto
p758
sVid
p759
I826126989677391873
sVmedia_url
p760
Vhttp://pbs.twimg.com/media/C3b-Hr8VcAEa_9h.jpg
p761
sasssg181
Nsg182
g714
sg32
g635
sg183
g720
sg184
g705
sg103
g709
sS'extended_entities'
p762
g723
sg185
I00
sg186
Nsg187
I0
sg188
I414569910
sbatp763
Rp764
(dp765
S'_since_id'
p766
NsS'_max_id'
p767
Nsb.